target datalayout = "e-m:e-p270:32:32-p271:32:32-p272:64:64-i64:64-i128:128-f80:128-n8:16:32:64-S128"
target triple = "x86_64-pc-linux-gnu"

%struct.slice_buffer_s = type { ptr, ptr, i32, i32, i32, i32, ptr }

@.str = private unnamed_addr constant [30 x i8] c"Assertion %s failed at %s:%d\0A\00", align 1
@.str.1 = private unnamed_addr constant [25 x i8] c"buf->data_stack_top >= 0\00", align 1
@.str.2 = private unnamed_addr constant [22 x i8] c"libavcodec/snow_dwt.c\00", align 1

; Function Attrs: nounwind uwtable
define ptr @ff_slice_buffer_load_line(ptr noundef %0, i32 noundef %1) #0 {
  %3 = alloca ptr, align 8
  %4 = alloca ptr, align 8
  %5 = alloca i32, align 4
  %6 = alloca ptr, align 8
  %7 = alloca i32, align 4
  store ptr %0, ptr %4, align 8, !tbaa !4
  store i32 %1, ptr %5, align 4, !tbaa !9
  call void @llvm.lifetime.start.p0(i64 8, ptr %6) #8
  br label %8

8:                                                ; preds = %2
  %9 = load ptr, ptr %4, align 8, !tbaa !4
  %10 = getelementptr inbounds nuw %struct.slice_buffer_s, ptr %9, i32 0, i32 2
  %11 = load i32, ptr %10, align 8, !tbaa !25
  %12 = icmp sge i32 %11, 0
  br i1 %12, label %14, label %13

13:                                               ; preds = %8
  call void (ptr, i32, ptr, ...) @av_log(ptr noundef null, i32 noundef 0, ptr noundef @.str, ptr noundef @.str.1, ptr noundef @.str.2, i32 noundef 67)
  call void @abort() #9
  unreachable

14:                                               ; preds = %8
  br label %15

15:                                               ; preds = %14
  br label %16

16:                                               ; preds = %15
  %17 = load ptr, ptr %4, align 8, !tbaa !4
  %18 = getelementptr inbounds nuw %struct.slice_buffer_s, ptr %17, i32 0, i32 0
  %19 = load ptr, ptr %18, align 8, !tbaa !20
  %20 = load i32, ptr %5, align 4, !tbaa !9
  %21 = sext i32 %20 to i64
  %22 = getelementptr inbounds ptr, ptr %19, i64 %21
  %23 = load ptr, ptr %22, align 8, !tbaa !11
  %24 = icmp ne ptr %23, null
  br i1 %24, label %25, label %33

25:                                               ; preds = %16
  %26 = load ptr, ptr %4, align 8, !tbaa !4
  %27 = getelementptr inbounds nuw %struct.slice_buffer_s, ptr %26, i32 0, i32 0
  %28 = load ptr, ptr %27, align 8, !tbaa !20
  %29 = load i32, ptr %5, align 4, !tbaa !9
  %30 = sext i32 %29 to i64
  %31 = getelementptr inbounds ptr, ptr %28, i64 %30
  %32 = load ptr, ptr %31, align 8, !tbaa !11
  store ptr %32, ptr %3, align 8
  store i32 1, ptr %7, align 4
  br label %55

33:                                               ; preds = %16
  %34 = load ptr, ptr %4, align 8, !tbaa !4
  %35 = getelementptr inbounds nuw %struct.slice_buffer_s, ptr %34, i32 0, i32 1
  %36 = load ptr, ptr %35, align 8, !tbaa !21
  %37 = load ptr, ptr %4, align 8, !tbaa !4
  %38 = getelementptr inbounds nuw %struct.slice_buffer_s, ptr %37, i32 0, i32 2
  %39 = load i32, ptr %38, align 8, !tbaa !25
  %40 = sext i32 %39 to i64
  %41 = getelementptr inbounds ptr, ptr %36, i64 %40
  %42 = load ptr, ptr %41, align 8, !tbaa !11
  store ptr %42, ptr %6, align 8, !tbaa !11
  %43 = load ptr, ptr %4, align 8, !tbaa !4
  %44 = getelementptr inbounds nuw %struct.slice_buffer_s, ptr %43, i32 0, i32 2
  %45 = load i32, ptr %44, align 8, !tbaa !25
  %46 = add nsw i32 %45, -1
  store i32 %46, ptr %44, align 8, !tbaa !25
  %47 = load ptr, ptr %6, align 8, !tbaa !11
  %48 = load ptr, ptr %4, align 8, !tbaa !4
  %49 = getelementptr inbounds nuw %struct.slice_buffer_s, ptr %48, i32 0, i32 0
  %50 = load ptr, ptr %49, align 8, !tbaa !20
  %51 = load i32, ptr %5, align 4, !tbaa !9
  %52 = sext i32 %51 to i64
  %53 = getelementptr inbounds ptr, ptr %50, i64 %52
  store ptr %47, ptr %53, align 8, !tbaa !11
  %54 = load ptr, ptr %6, align 8, !tbaa !11
  store ptr %54, ptr %3, align 8
  store i32 1, ptr %7, align 4
  br label %55

55:                                               ; preds = %33, %25
  call void @llvm.lifetime.end.p0(i64 8, ptr %6) #8
  %56 = load ptr, ptr %3, align 8
  ret ptr %56
}