; Function Attrs: nounwind uwtable
define ptr @ff_slice_buffer_load_line(ptr noundef captures(none) %0, i32 noundef %1) local_unnamed_addr #0 {
  %3 = getelementptr inbounds nuw i8, ptr %0, i64 16
  %4 = load i32, ptr %3, align 8, !tbaa !22
  %5 = icmp sgt i32 %4, -1
  br i1 %5, label %7, label %6

6:                                                ; preds = %2
  tail call void (ptr, i32, ptr, ...) @av_log(ptr noundef null, i32 noundef 0, ptr noundef nonnull @.str, ptr noundef nonnull @.str.1, ptr noundef nonnull @.str.2, i32 noundef 67) #12
  tail call void @abort() #13
  unreachable

7:                                                ; preds = %2
  %8 = load ptr, ptr %0, align 8, !tbaa !16
  %9 = sext i32 %1 to i64
  %10 = getelementptr inbounds ptr, ptr %8, i64 %9
  %11 = load ptr, ptr %10, align 8, !tbaa !18
  %.not = icmp eq ptr %11, null
  br i1 %.not, label %12, label %19

12:                                               ; preds = %7
  %13 = getelementptr inbounds nuw i8, ptr %0, i64 8
  %14 = load ptr, ptr %13, align 8, !tbaa !17
  %15 = zext nneg i32 %4 to i64
  %16 = getelementptr inbounds nuw ptr, ptr %14, i64 %15
  %17 = load ptr, ptr %16, align 8, !tbaa !18
  %18 = add nsw i32 %4, -1
  store i32 %18, ptr %3, align 8, !tbaa !22
  store ptr %17, ptr %10, align 8, !tbaa !18
  br label %19

19:                                               ; preds = %7, %12
  %.0 = phi ptr [ %17, %12 ], [ %11, %7 ]
  ret ptr %.0
}